	.file	"hyantes-openmp.c"
	.text
.Ltext0:
	.section	.rodata.str1.1,"aMS",@progbits,1
.LC0:
	.string	"%lf %lf %lf\n"
.LC1:
	.string	"\n"
	.text
	.p2align 4,,15
.globl display
	.type	display, @function
display:
.LFB27:
	.file 1 "hyantes-openmp.c"
	.loc 1 108 0
	.cfi_startproc
.LVL0:
	pushq	%r12
.LCFI0:
	.cfi_def_cfa_offset 16
	xorl	%r12d, %r12d
	.cfi_offset 12, -16
.LVL1:
	pushq	%rbp
.LCFI1:
	.cfi_def_cfa_offset 24
	movq	%rdi, %rbp
	.cfi_offset 6, -24
	pushq	%rbx
.LCFI2:
	.cfi_def_cfa_offset 32
	.p2align 4,,10
	.p2align 3
.L2:
	.loc 1 110 0
	xorl	%ebx, %ebx
	.cfi_offset 3, -32
	.p2align 4,,10
	.p2align 3
.L3:
.LBB27:
.LBB28:
	.file 2 "/usr/include/bits/stdio2.h"
	.loc 2 105 0
	movsd	(%rbp,%rbx), %xmm0
	leaq	.LC0(%rip), %rsi
	movsd	16(%rbp,%rbx), %xmm2
	movl	$1, %edi
.LVL2:
	movsd	8(%rbp,%rbx), %xmm1
	movl	$3, %eax
	addq	$24, %rbx
	call	__printf_chk@PLT
.LBE28:
.LBE27:
	.loc 1 111 0
	cmpq	$7176, %rbx
	jne	.L3
.LBB29:
.LBB30:
	.loc 2 105 0
	leaq	.LC1(%rip), %rsi
	xorl	%eax, %eax
	movl	$1, %edi
.LBE30:
.LBE29:
	.loc 1 110 0
	addq	$1, %r12
	addq	$7176, %rbp
.LBB32:
.LBB31:
	.loc 2 105 0
	call	__printf_chk@PLT
.LBE31:
.LBE32:
	.loc 1 110 0
	cmpq	$290, %r12
	jne	.L2
	.loc 1 115 0
	popq	%rbx
	popq	%rbp
	popq	%r12
.LVL3:
	ret
	.cfi_endproc
.LFE27:
	.size	display, .-display
	.section	.rodata.str1.1
.LC2:
	.string	"r"
.LC3:
	.string	"begin parsing ...\n"
.LC4:
	.string	"%lf%*[ \t]%lf%*[ \t]%lf"
.LC6:
	.string	"parsed %zu towns\n"
	.text
	.p2align 4,,15
.globl read_towns
	.type	read_towns, @function
read_towns:
.LFB25:
	.loc 1 47 0
	.cfi_startproc
.LVL4:
	pushq	%r15
.LCFI3:
	.cfi_def_cfa_offset 16
	.loc 1 48 0
	leaq	.LC2(%rip), %rsi
	.loc 1 47 0
	pushq	%r14
.LCFI4:
	.cfi_def_cfa_offset 24
.LBB33:
.LBB35:
	.loc 2 98 0
	movl	$1, %r14d
	.cfi_offset 14, -24
	.cfi_offset 15, -16
.LBE35:
.LBE33:
	.loc 1 47 0
	pushq	%r13
.LCFI5:
	.cfi_def_cfa_offset 32
	pushq	%r12
.LCFI6:
	.cfi_def_cfa_offset 40
.LBB38:
.LBB36:
	.loc 2 98 0
	xorl	%r12d, %r12d
	.cfi_offset 12, -40
	.cfi_offset 13, -32
.LVL5:
.LBE36:
.LBE38:
	.loc 1 47 0
	pushq	%rbp
.LCFI7:
	.cfi_def_cfa_offset 48
	pushq	%rbx
.LCFI8:
	.cfi_def_cfa_offset 56
	subq	$40, %rsp
.LCFI9:
	.cfi_def_cfa_offset 96
	.loc 1 48 0
	.cfi_offset 3, -56
	.cfi_offset 6, -48
	call	fopen@PLT
.LVL6:
	.loc 1 51 0
	movl	$24, %edi
	.loc 1 48 0
	movq	%rax, %rbx
.LVL7:
	.loc 1 51 0
	call	malloc@PLT
.LBB39:
.LBB34:
	.loc 2 98 0
	movq	stderr@GOTPCREL(%rip), %r15
	leaq	.LC3(%rip), %rdx
.LBE34:
.LBE39:
	.loc 1 51 0
	movq	%rax, %r13
.LBB40:
.LBB37:
	.loc 2 98 0
	movl	$1, %esi
	xorl	%eax, %eax
	movq	(%r15), %rdi
	call	__fprintf_chk@PLT
.LVL8:
	.p2align 4,,10
	.p2align 3
.L17:
.LBE37:
.LBE40:
	.loc 1 54 0
	movq	%rbx, %rdi
	call	feof@PLT
.LVL9:
	testl	%eax, %eax
	jne	.L19
.L13:
	.loc 1 55 0
	cmpq	%r14, %r12
	.p2align 4,,2
	je	.L20
.L10:
	.loc 1 60 0
	leaq	(%r12,%r12,2), %rax
	leaq	.LC4(%rip), %rsi
	movq	%rbx, %rdi
	leaq	(%r13,%rax,8), %rbp
	xorl	%eax, %eax
	leaq	8(%rbp), %rcx
	leaq	16(%rbp), %r8
	movq	%rbp, %rdx
	call	__isoc99_fscanf@PLT
	cmpl	$3, %eax
	je	.L11
.LVL10:
.L18:
	.loc 1 62 0
	movq	%rbx, %rdi
	call	feof@PLT
.LVL11:
	testl	%eax, %eax
	.p2align 4,,2
	jne	.L17
	.loc 1 63 0
	movq	%rbx, %rdi
	call	fgetc@PLT
	.loc 1 64 0
	cmpb	$13, %al
.LVL12:
	.p2align 4,,2
	je	.L17
	cmpb	$10, %al
	.p2align 4,,2
	jne	.L18
	.loc 1 54 0
	movq	%rbx, %rdi
	.p2align 4,,5
	call	feof@PLT
.LVL13:
	testl	%eax, %eax
	.p2align 4,,2
	je	.L13
.L19:
	.loc 1 77 0
	movq	%rbx, %rdi
	call	fclose@PLT
	.loc 1 78 0
	leaq	(%r12,%r12,2), %rsi
	movq	%r13, %rdi
	salq	$3, %rsi
	call	realloc@PLT
.LBB41:
.LBB42:
	.loc 2 98 0
	movq	(%r15), %rdi
	leaq	.LC6(%rip), %rdx
.LBE42:
.LBE41:
	.loc 1 78 0
	movq	%rax, %rbx
.LVL14:
.LBB44:
.LBB43:
	.loc 2 98 0
	movq	%r12, %rcx
	movl	$1, %esi
	xorl	%eax, %eax
	call	__fprintf_chk@PLT
.LBE43:
.LBE44:
	.loc 1 86 0
	addq	$40, %rsp
	movq	%rbx, %rdx
	movq	%r12, %rax
	popq	%rbx
	popq	%rbp
	popq	%r12
.LVL15:
	popq	%r13
	popq	%r14
	popq	%r15
	ret
.LVL16:
	.p2align 4,,10
	.p2align 3
.L11:
	.loc 1 72 0
	movsd	.LC5(%rip), %xmm0
	.loc 1 74 0
	addq	$1, %r12
	.loc 1 72 0
	mulsd	(%rbp), %xmm0
	movsd	%xmm0, (%rbp)
	.loc 1 73 0
	movsd	.LC5(%rip), %xmm0
	mulsd	8(%rbp), %xmm0
	movsd	%xmm0, 8(%rbp)
	jmp	.L17
	.p2align 4,,10
	.p2align 3
.L20:
	.loc 1 56 0
	leaq	(%r12,%r12), %r14
	.loc 1 58 0
	movq	%r13, %rdi
	leaq	(%r14,%r12,4), %rsi
	salq	$3, %rsi
	call	realloc@PLT
	movq	%rax, %r13
	jmp	.L10
	.cfi_endproc
.LFE25:
	.size	read_towns, .-read_towns
	.p2align 4,,15
	.type	run.omp_fn.0, @function
run.omp_fn.0:
.LFB29:
	.loc 1 93 0
	.cfi_startproc
.LVL17:
	pushq	%r15
.LCFI10:
	.cfi_def_cfa_offset 16
	pushq	%r14
.LCFI11:
	.cfi_def_cfa_offset 24
	pushq	%r13
.LCFI12:
	.cfi_def_cfa_offset 32
	pushq	%r12
.LCFI13:
	.cfi_def_cfa_offset 40
	pushq	%rbp
.LCFI14:
	.cfi_def_cfa_offset 48
	pushq	%rbx
.LCFI15:
	.cfi_def_cfa_offset 56
	movq	%rdi, %rbx
	.cfi_offset 3, -56
	.cfi_offset 6, -48
	.cfi_offset 12, -40
	.cfi_offset 13, -32
	.cfi_offset 14, -24
	.cfi_offset 15, -16
	subq	$136, %rsp
.LCFI16:
	.cfi_def_cfa_offset 192
	.loc 1 94 0
	call	omp_get_num_threads@PLT
.LVL18:
	movslq	%eax,%rbp
	call	omp_get_thread_num@PLT
	movl	$290, %ecx
	movl	%eax, %esi
	xorl	%edx, %edx
	movq	%rcx, %rax
	movslq	%esi,%rsi
	divq	%rbp
	xorl	%edx, %edx
	imulq	%rax, %rbp
	cmpq	$290, %rbp
	setne	%dl
	leaq	(%rdx,%rax), %rax
	imulq	%rax, %rsi
	addq	%rsi, %rax
	movq	%rsi, 88(%rsp)
	cmpq	$290, %rax
	cmovbe	%rax, %rcx
	cmpq	%rcx, %rsi
	movq	%rcx, 96(%rsp)
	jae	.L34
	imulq	$7176, %rsi, %r15
	leaq	120(%rsp), %r14
	leaq	112(%rsp), %r13
.LVL19:
.L24:
.LBB45:
	.loc 1 96 0
	movq	88(%rsp), %rax
.LBE45:
	.loc 1 94 0
	movq	$0, 80(%rsp)
.LBB47:
	.loc 1 96 0
	shrq	%rax
	movq	%rax, 104(%rsp)
	movq	88(%rsp), %rax
	andl	$1, %eax
	orq	%rax, 104(%rsp)
	.p2align 4,,10
	.p2align 3
.L23:
	cmpq	$0, 88(%rsp)
	js	.L25
	cvtsi2sdq	88(%rsp), %xmm0
.LVL20:
	movsd	%xmm0, 64(%rsp)
.L26:
	mulsd	16(%rbx), %xmm0
	movq	80(%rsp), %rcx
	movq	32(%rbx), %rax
	leaq	(%rcx,%rcx,2), %rdx
	.loc 1 97 0
	testq	%rcx, %rcx
	.loc 1 96 0
	leaq	(%r15,%rdx,8), %rdx
	addsd	(%rbx), %xmm0
	mulsd	.LC7(%rip), %xmm0
	divsd	.LC8(%rip), %xmm0
	movsd	%xmm0, (%rdx,%rax)
	.loc 1 97 0
	js	.L27
	cvtsi2sdq	80(%rsp), %xmm0
	movsd	%xmm0, 56(%rsp)
.L28:
	mulsd	16(%rbx), %xmm0
	movq	80(%rsp), %rdx
	.loc 1 98 0
	xorl	%ebp, %ebp
	.loc 1 97 0
	leaq	(%rdx,%rdx,2), %rax
	salq	$3, %rax
	addsd	8(%rbx), %xmm0
	leaq	(%rax,%r15), %rdx
	movq	%rdx, %rcx
	addq	32(%rbx), %rcx
	mulsd	.LC7(%rip), %xmm0
	divsd	.LC8(%rip), %xmm0
	movsd	%xmm0, 8(%rcx)
	.loc 1 98 0
	addq	32(%rbx), %rdx
	movq	$0, 16(%rdx)
.LBB46:
	.loc 1 102 0
	movq	%rax, 72(%rsp)
.LVL21:
	.p2align 4,,10
	.p2align 3
.L29:
	.loc 1 100 0
	movsd	16(%rbx), %xmm1
	movq	%r13, %rsi
	movsd	64(%rsp), %xmm0
.LVL22:
	movq	%r14, %rdi
	movsd	%xmm1, 32(%rsp)
	movq	%rbp, %r12
	mulsd	%xmm1, %xmm0
	addsd	(%rbx), %xmm0
	call	sincos@PLT
	addq	40(%rbx), %r12
	movsd	112(%rsp), %xmm3
	movsd	120(%rsp), %xmm2
	movq	%r13, %rsi
	movq	%r14, %rdi
	movsd	(%r12), %xmm0
	movsd	%xmm2, (%rsp)
	movsd	%xmm3, 16(%rsp)
	call	sincos@PLT
	movsd	32(%rsp), %xmm1
	movsd	56(%rsp), %xmm0
	mulsd	%xmm1, %xmm0
	addsd	8(%rbx), %xmm0
	subsd	8(%r12), %xmm0
	call	cos@PLT
	movsd	16(%rsp), %xmm3
	movsd	(%rsp), %xmm2
	mulsd	112(%rsp), %xmm3
	mulsd	120(%rsp), %xmm2
	mulsd	%xmm0, %xmm3
	addsd	%xmm2, %xmm3
	movapd	%xmm3, %xmm0
	call	acos@PLT
	mulsd	.LC10(%rip), %xmm0
.LVL23:
	.loc 1 101 0
	movsd	24(%rbx), %xmm1
	ucomisd	%xmm0, %xmm1
	jbe	.L33
	.loc 1 102 0
	addsd	.LC11(%rip), %xmm0
.LVL24:
	movq	40(%rbx), %rdx
	movq	%r15, %rax
	addq	32(%rbx), %rax
	addq	72(%rsp), %rax
	movsd	16(%rdx,%rbp), %xmm1
	divsd	%xmm0, %xmm1
	addsd	16(%rax), %xmm1
	movsd	%xmm1, 16(%rax)
.LVL25:
.L33:
	.loc 1 101 0
	addq	$24, %rbp
.LBE46:
	.loc 1 99 0
	cmpq	$69072, %rbp
	jne	.L29
	.loc 1 95 0
	addq	$1, 80(%rsp)
	cmpq	$299, 80(%rsp)
	jne	.L23
.LBE47:
	.loc 1 94 0
	addq	$1, 88(%rsp)
	addq	$7176, %r15
	movq	88(%rsp), %rdx
	cmpq	%rdx, 96(%rsp)
	ja	.L24
.L34:
	.loc 1 93 0
	addq	$136, %rsp
	popq	%rbx
.LVL26:
	popq	%rbp
	popq	%r12
	popq	%r13
	popq	%r14
	popq	%r15
	ret
.LVL27:
	.p2align 4,,10
	.p2align 3
.L27:
.LBB48:
	.loc 1 97 0
	movq	80(%rsp), %rax
	movq	80(%rsp), %rdx
	shrq	%rax
	andl	$1, %edx
	orq	%rdx, %rax
	cvtsi2sdq	%rax, %xmm0
	addsd	%xmm0, %xmm0
	movsd	%xmm0, 56(%rsp)
	jmp	.L28
.LVL28:
.L25:
	.loc 1 96 0
	cvtsi2sdq	104(%rsp), %xmm0
.LVL29:
	addsd	%xmm0, %xmm0
	movsd	%xmm0, 64(%rsp)
	jmp	.L26
.LBE48:
	.cfi_endproc
.LFE29:
	.size	run.omp_fn.0, .-run.omp_fn.0
	.section	.rodata.str1.1
.LC12:
	.string	"begin computation ...\n"
.LC13:
	.string	"end computation ...\n"
	.text
	.p2align 4,,15
.globl run
	.type	run, @function
run:
.LFB26:
	.loc 1 88 0
	.cfi_startproc
.LVL30:
	movq	%rbx, -24(%rsp)
	movq	%rbp, -16(%rsp)
.LBB49:
.LBB51:
	.loc 2 98 0
	leaq	.LC12(%rip), %rdx
.LBE51:
.LBE49:
	.loc 1 88 0
	movq	%r12, -8(%rsp)
	subq	$136, %rsp
.LCFI17:
	.cfi_def_cfa_offset 144
.LBB53:
.LBB50:
	.loc 2 98 0
	movq	stderr@GOTPCREL(%rip), %rbx
	.cfi_offset 12, -16
	.cfi_offset 6, -24
	.cfi_offset 3, -32
.LBE50:
.LBE53:
	.loc 1 88 0
	movq	%rdi, %r12
	movq	%rsi, %rbp
.LBB54:
.LBB52:
	.loc 2 98 0
	xorl	%eax, %eax
	movl	$1, %esi
.LVL31:
	movq	(%rbx), %rdi
.LVL32:
	movsd	%xmm0, 48(%rsp)
.LVL33:
	movsd	%xmm1, 32(%rsp)
.LVL34:
	movsd	%xmm4, 16(%rsp)
.LVL35:
	movsd	%xmm5, (%rsp)
.LVL36:
	call	__fprintf_chk@PLT
.LVL37:
.LBE52:
.LBE54:
	.loc 1 93 0
	movq	%rbp, 104(%rsp)
	leaq	64(%rsp), %rbp
.LVL38:
	leaq	run.omp_fn.0(%rip), %rdi
	movsd	48(%rsp), %xmm0
	xorl	%edx, %edx
	movsd	32(%rsp), %xmm1
	movq	%rbp, %rsi
	movsd	16(%rsp), %xmm4
	movq	%r12, 96(%rsp)
	movsd	(%rsp), %xmm5
	movsd	%xmm0, 64(%rsp)
.LVL39:
	movsd	%xmm1, 72(%rsp)
.LVL40:
	movsd	%xmm4, 80(%rsp)
.LVL41:
	movsd	%xmm5, 88(%rsp)
.LVL42:
	call	GOMP_parallel_start@PLT
.LVL43:
	movq	%rbp, %rdi
	call	run.omp_fn.0
	call	GOMP_parallel_end@PLT
.LBB55:
.LBB56:
	.loc 2 98 0
	movq	(%rbx), %rdi
	leaq	.LC13(%rip), %rdx
	movl	$1, %esi
	xorl	%eax, %eax
	call	__fprintf_chk@PLT
.LBE56:
.LBE55:
	.loc 1 106 0
	movq	112(%rsp), %rbx
	movq	120(%rsp), %rbp
	movq	128(%rsp), %r12
.LVL44:
	addq	$136, %rsp
	ret
	.cfi_endproc
.LFE26:
	.size	run, .-run
	.p2align 4,,15
.globl main
	.type	main, @function
main:
.LFB28:
	.loc 1 117 0
	.cfi_startproc
.LVL45:
	pushq	%rbx
.LCFI18:
	.cfi_def_cfa_offset 16
	.loc 1 118 0
	movl	$1, %eax
	.loc 1 117 0
	movq	%rsi, %rbx
	.cfi_offset 3, -16
	subq	$2081152, %rsp
.LCFI19:
	.cfi_def_cfa_offset 2081168
	.loc 1 118 0
	cmpl	$8, %edi
	je	.L46
.LVL46:
	.loc 1 133 0
	addq	$2081152, %rsp
	popq	%rbx
.LVL47:
	ret
.LVL48:
	.p2align 4,,10
	.p2align 3
.L46:
.LBB57:
	.loc 1 122 0
	movq	8(%rsi), %rdi
.LVL49:
	call	read_towns@PLT
	movq	%rax, 80(%rsp)
	movq	%rax, 2081136(%rsp)
.LBB58:
.LBB59:
	.file 3 "/usr/include/stdlib.h"
	.loc 3 281 0
	xorl	%esi, %esi
.LBE59:
.LBE58:
	.loc 1 122 0
	movq	%rdx, 88(%rsp)
	movq	%rdx, 2081144(%rsp)
.LBB61:
.LBB60:
	.loc 3 281 0
	movq	16(%rbx), %rdi
	call	strtod@PLT
	movsd	%xmm0, 72(%rsp)
.LBE60:
.LBE61:
.LBB62:
.LBB63:
	movq	24(%rbx), %rdi
	xorl	%esi, %esi
	call	strtod@PLT
.LBE63:
.LBE62:
.LBB64:
.LBB65:
	movq	32(%rbx), %rdi
	xorl	%esi, %esi
	movsd	%xmm0, (%rsp)
	call	strtod@PLT
.LBE65:
.LBE64:
.LBB66:
.LBB67:
	movq	40(%rbx), %rdi
	xorl	%esi, %esi
	movsd	%xmm0, 16(%rsp)
	call	strtod@PLT
.LBE67:
.LBE66:
.LBB68:
.LBB69:
	movq	48(%rbx), %rdi
	xorl	%esi, %esi
	movsd	%xmm0, 32(%rsp)
	call	strtod@PLT
.LBE69:
.LBE68:
.LBB70:
.LBB72:
	movq	56(%rbx), %rdi
	xorl	%esi, %esi
	movsd	%xmm0, 48(%rsp)
.LBE72:
.LBE70:
	.loc 1 129 0
	leaq	96(%rsp), %rbx
.LVL50:
.LBB74:
.LBB71:
	.loc 3 281 0
	call	strtod@PLT
.LBE71:
.LBE74:
	.loc 1 129 0
	movsd	48(%rsp), %xmm4
	movq	2081144(%rsp), %rsi
.LBB75:
.LBB73:
	.loc 3 281 0
	movapd	%xmm0, %xmm5
.LVL51:
.LBE73:
.LBE75:
	.loc 1 129 0
	movq	%rbx, %rdi
	movsd	.LC8(%rip), %xmm0
	movsd	32(%rsp), %xmm3
	movsd	16(%rsp), %xmm2
	movsd	(%rsp), %xmm1
	mulsd	%xmm0, %xmm4
	mulsd	%xmm0, %xmm3
	mulsd	%xmm0, %xmm2
	mulsd	%xmm0, %xmm1
	mulsd	72(%rsp), %xmm0
	movsd	.LC7(%rip), %xmm6
	divsd	%xmm6, %xmm4
	divsd	%xmm6, %xmm0
	divsd	%xmm6, %xmm3
	divsd	%xmm6, %xmm2
	divsd	%xmm6, %xmm1
	call	run@PLT
.LVL52:
	.loc 1 130 0
	movq	%rbx, %rdi
	call	display@PLT
	xorl	%eax, %eax
.LBE57:
	.loc 1 133 0
	addq	$2081152, %rsp
	popq	%rbx
	ret
	.cfi_endproc
.LFE28:
	.size	main, .-main
	.section	.rodata.cst8,"aM",@progbits,8
	.align 8
.LC5:
	.long	2723323193
	.long	1066524486
	.align 8
.LC7:
	.long	0
	.long	1080459264
	.align 8
.LC8:
	.long	1413754136
	.long	1074340347
	.align 8
.LC10:
	.long	0
	.long	1085857792
	.align 8
.LC11:
	.long	0
	.long	1072693248
	.text
.Letext0:
	.section	.note.GNU-stack,"",@progbits
