	.file	"hyantes-accel.c"
	.text
.Ltext0:
	.section	.rodata.str1.1,"aMS",@progbits,1
.LC0:
	.string	"%lf %lf %lf\n"
.LC1:
	.string	"\n"
	.text
	.p2align 4,,15
.globl display
	.type	display, @function
display:
.LFB50:
	.file 1 "hyantes-accel.c"
	.loc 1 148 0
	.cfi_startproc
.LVL0:
	pushq	%r12
.LCFI0:
	.cfi_def_cfa_offset 16
	xorl	%r12d, %r12d
	.cfi_offset 12, -16
.LVL1:
	pushq	%rbp
.LCFI1:
	.cfi_def_cfa_offset 24
	movq	%rdi, %rbp
	.cfi_offset 6, -24
	pushq	%rbx
.LCFI2:
	.cfi_def_cfa_offset 32
	.p2align 4,,10
	.p2align 3
.L2:
	.loc 1 150 0
	xorl	%ebx, %ebx
	.cfi_offset 3, -32
	.p2align 4,,10
	.p2align 3
.L3:
.LBB28:
.LBB29:
	.file 2 "/usr/include/bits/stdio2.h"
	.loc 2 105 0
	movsd	(%rbp,%rbx), %xmm0
	leaq	.LC0(%rip), %rsi
	movsd	16(%rbp,%rbx), %xmm2
	movl	$1, %edi
.LVL2:
	movsd	8(%rbp,%rbx), %xmm1
	movl	$3, %eax
	addq	$24, %rbx
	call	__printf_chk@PLT
.LBE29:
.LBE28:
	.loc 1 151 0
	cmpq	$7176, %rbx
	jne	.L3
.LBB30:
.LBB31:
	.loc 2 105 0
	leaq	.LC1(%rip), %rsi
	xorl	%eax, %eax
	movl	$1, %edi
.LBE31:
.LBE30:
	.loc 1 150 0
	addq	$1, %r12
	addq	$7176, %rbp
.LBB33:
.LBB32:
	.loc 2 105 0
	call	__printf_chk@PLT
.LBE32:
.LBE33:
	.loc 1 150 0
	cmpq	$290, %r12
	jne	.L2
	.loc 1 155 0
	popq	%rbx
	popq	%rbp
	popq	%r12
.LVL3:
	ret
	.cfi_endproc
.LFE50:
	.size	display, .-display
	.section	.rodata.str1.1
.LC2:
	.string	"r"
.LC3:
	.string	"begin parsing ...\n"
.LC4:
	.string	"%lf%*[ \t]%lf%*[ \t]%lf"
.LC6:
	.string	"parsed %zu towns\n"
	.text
	.p2align 4,,15
.globl read_towns
	.type	read_towns, @function
read_towns:
.LFB48:
	.loc 1 86 0
	.cfi_startproc
.LVL4:
	pushq	%r15
.LCFI3:
	.cfi_def_cfa_offset 16
	.loc 1 87 0
	leaq	.LC2(%rip), %rsi
	.loc 1 86 0
	pushq	%r14
.LCFI4:
	.cfi_def_cfa_offset 24
.LBB34:
.LBB36:
	.loc 2 98 0
	movl	$1, %r14d
	.cfi_offset 14, -24
	.cfi_offset 15, -16
.LBE36:
.LBE34:
	.loc 1 86 0
	pushq	%r13
.LCFI5:
	.cfi_def_cfa_offset 32
	pushq	%r12
.LCFI6:
	.cfi_def_cfa_offset 40
.LBB39:
.LBB37:
	.loc 2 98 0
	xorl	%r12d, %r12d
	.cfi_offset 12, -40
	.cfi_offset 13, -32
.LVL5:
.LBE37:
.LBE39:
	.loc 1 86 0
	pushq	%rbp
.LCFI7:
	.cfi_def_cfa_offset 48
	pushq	%rbx
.LCFI8:
	.cfi_def_cfa_offset 56
	subq	$40, %rsp
.LCFI9:
	.cfi_def_cfa_offset 96
	.loc 1 87 0
	.cfi_offset 3, -56
	.cfi_offset 6, -48
	call	fopen@PLT
.LVL6:
	.loc 1 90 0
	movl	$24, %edi
	.loc 1 87 0
	movq	%rax, %rbx
.LVL7:
	.loc 1 90 0
	call	malloc@PLT
.LBB40:
.LBB35:
	.loc 2 98 0
	movq	stderr@GOTPCREL(%rip), %r15
	leaq	.LC3(%rip), %rdx
.LBE35:
.LBE40:
	.loc 1 90 0
	movq	%rax, %r13
.LBB41:
.LBB38:
	.loc 2 98 0
	movl	$1, %esi
	xorl	%eax, %eax
	movq	(%r15), %rdi
	call	__fprintf_chk@PLT
.LVL8:
	.p2align 4,,10
	.p2align 3
.L17:
.LBE38:
.LBE41:
	.loc 1 93 0
	movq	%rbx, %rdi
	call	feof@PLT
.LVL9:
	testl	%eax, %eax
	jne	.L19
.L13:
	.loc 1 94 0
	cmpq	%r14, %r12
	.p2align 4,,2
	je	.L20
.L10:
	.loc 1 99 0
	leaq	(%r12,%r12,2), %rax
	leaq	.LC4(%rip), %rsi
	movq	%rbx, %rdi
	leaq	(%r13,%rax,8), %rbp
	xorl	%eax, %eax
	leaq	8(%rbp), %rcx
	leaq	16(%rbp), %r8
	movq	%rbp, %rdx
	call	__isoc99_fscanf@PLT
	cmpl	$3, %eax
	je	.L11
.LVL10:
.L18:
	.loc 1 101 0
	movq	%rbx, %rdi
	call	feof@PLT
.LVL11:
	testl	%eax, %eax
	.p2align 4,,2
	jne	.L17
	.loc 1 102 0
	movq	%rbx, %rdi
	call	fgetc@PLT
	.loc 1 103 0
	cmpb	$13, %al
.LVL12:
	.p2align 4,,2
	je	.L17
	cmpb	$10, %al
	.p2align 4,,2
	jne	.L18
	.loc 1 93 0
	movq	%rbx, %rdi
	.p2align 4,,5
	call	feof@PLT
.LVL13:
	testl	%eax, %eax
	.p2align 4,,2
	je	.L13
.L19:
	.loc 1 116 0
	movq	%rbx, %rdi
	call	fclose@PLT
	.loc 1 117 0
	leaq	(%r12,%r12,2), %rsi
	movq	%r13, %rdi
	salq	$3, %rsi
	call	realloc@PLT
.LBB42:
.LBB43:
	.loc 2 98 0
	movq	(%r15), %rdi
	leaq	.LC6(%rip), %rdx
.LBE43:
.LBE42:
	.loc 1 117 0
	movq	%rax, %rbx
.LVL14:
.LBB45:
.LBB44:
	.loc 2 98 0
	movq	%r12, %rcx
	movl	$1, %esi
	xorl	%eax, %eax
	call	__fprintf_chk@PLT
.LBE44:
.LBE45:
	.loc 1 125 0
	addq	$40, %rsp
	movq	%rbx, %rdx
	movq	%r12, %rax
	popq	%rbx
	popq	%rbp
	popq	%r12
.LVL15:
	popq	%r13
	popq	%r14
	popq	%r15
	ret
.LVL16:
	.p2align 4,,10
	.p2align 3
.L11:
	.loc 1 111 0
	movsd	.LC5(%rip), %xmm0
	.loc 1 113 0
	addq	$1, %r12
	.loc 1 111 0
	mulsd	(%rbp), %xmm0
	movsd	%xmm0, (%rbp)
	.loc 1 112 0
	movsd	.LC5(%rip), %xmm0
	mulsd	8(%rbp), %xmm0
	movsd	%xmm0, 8(%rbp)
	jmp	.L17
	.p2align 4,,10
	.p2align 3
.L20:
	.loc 1 95 0
	leaq	(%r12,%r12), %r14
	.loc 1 97 0
	movq	%r13, %rdi
	leaq	(%r14,%r12,4), %rsi
	salq	$3, %rsi
	call	realloc@PLT
	movq	%rax, %r13
	jmp	.L10
	.cfi_endproc
.LFE48:
	.size	read_towns, .-read_towns
	.p2align 4,,15
.globl p4a_kernel_run
	.type	p4a_kernel_run, @function
p4a_kernel_run:
.LFB46:
	.loc 1 64 0
	.cfi_startproc
.LVL17:
	pushq	%r14
.LCFI10:
	.cfi_def_cfa_offset 16
	pushq	%r13
.LCFI11:
	.cfi_def_cfa_offset 24
	pushq	%r12
.LCFI12:
	.cfi_def_cfa_offset 32
	pushq	%rbp
.LCFI13:
	.cfi_def_cfa_offset 40
	movq	%rcx, %rbp
	.cfi_offset 6, -40
	.cfi_offset 12, -32
	.cfi_offset 13, -24
	.cfi_offset 14, -16
	pushq	%rbx
.LCFI14:
	.cfi_def_cfa_offset 48
	subq	$48, %rsp
.LCFI15:
	.cfi_def_cfa_offset 96
	.loc 1 68 0
	cmpq	$298, %rsi
	.loc 1 64 0
	movsd	%xmm0, 8(%rsp)
	.loc 1 68 0
	ja	.L30
	.cfi_offset 3, -48
.LVL18:
	cmpq	$289, %rdi
	ja	.L30
	.loc 1 69 0
	imulq	$7176, %rdi, %rax
	leaq	(%rsi,%rsi,2), %rcx
	testq	%rdi, %rdi
	leaq	(%rax,%rcx,8), %r12
	leaq	(%rdx,%r12), %r12
	js	.L23
	cvtsi2sdq	%rdi, %xmm0
.LVL19:
.L24:
	mulsd	%xmm1, %xmm0
	.loc 1 70 0
	testq	%rsi, %rsi
	.loc 1 69 0
	movsd	.LC7(%rip), %xmm5
	movsd	.LC8(%rip), %xmm4
	addsd	%xmm2, %xmm0
	movapd	%xmm0, %xmm2
.LVL20:
	mulsd	%xmm5, %xmm2
	divsd	%xmm4, %xmm2
	movsd	%xmm2, (%r12)
	.loc 1 70 0
	js	.L25
	cvtsi2sdq	%rsi, %xmm2
.L26:
	mulsd	%xmm1, %xmm2
	movapd	%xmm5, %xmm1
.LVL21:
	.loc 1 63 0
	leaq	40(%rsp), %r13
	leaq	32(%rsp), %r14
	xorl	%ebx, %ebx
	movq	%r14, %rsi
.LVL22:
	movq	%r13, %rdi
.LVL23:
	.loc 1 70 0
	addsd	%xmm2, %xmm3
.LVL24:
	mulsd	%xmm3, %xmm1
.LVL25:
	movsd	%xmm3, (%rsp)
.LVL26:
	.loc 1 71 0
	movq	$0, 16(%r12)
	.loc 1 70 0
	divsd	%xmm4, %xmm1
	movsd	%xmm1, 8(%r12)
	.loc 1 63 0
	call	sincos@PLT
.LVL27:
	movsd	32(%rsp), %xmm0
	movsd	40(%rsp), %xmm1
	movsd	%xmm0, 16(%rsp)
	movsd	%xmm1, 24(%rsp)
.LVL28:
	.p2align 4,,10
	.p2align 3
.L29:
	movsd	(%rbp,%rbx), %xmm0
.LVL29:
	movq	%r14, %rsi
	movq	%r13, %rdi
	call	sincos@PLT
.LBB46:
	.loc 1 73 0
	movsd	(%rsp), %xmm0
	subsd	8(%rbp,%rbx), %xmm0
	call	cos@PLT
	movapd	%xmm0, %xmm1
	movsd	16(%rsp), %xmm0
	mulsd	32(%rsp), %xmm0
	mulsd	%xmm1, %xmm0
	movsd	24(%rsp), %xmm1
	mulsd	40(%rsp), %xmm1
	addsd	%xmm1, %xmm0
	call	acos@PLT
	mulsd	.LC10(%rip), %xmm0
.LVL30:
	.loc 1 74 0
	movsd	8(%rsp), %xmm1
	ucomisd	%xmm0, %xmm1
	jbe	.L27
	.loc 1 75 0
	addsd	.LC11(%rip), %xmm0
.LVL31:
	movsd	16(%rbp,%rbx), %xmm1
	divsd	%xmm0, %xmm1
	addsd	16(%r12), %xmm1
	movsd	%xmm1, 16(%r12)
.LVL32:
.L27:
	addq	$24, %rbx
.LBE46:
	.loc 1 72 0
	cmpq	$69072, %rbx
	jne	.L29
.LVL33:
.L30:
	.loc 1 78 0
	addq	$48, %rsp
	popq	%rbx
	popq	%rbp
.LVL34:
	popq	%r12
	popq	%r13
	popq	%r14
	ret
.LVL35:
.L23:
	.loc 1 69 0
	movq	%rdi, %rax
	andl	$1, %edi
.LVL36:
	shrq	%rax
	orq	%rdi, %rax
	cvtsi2sdq	%rax, %xmm0
.LVL37:
	addsd	%xmm0, %xmm0
	jmp	.L24
.LVL38:
.L25:
	.loc 1 70 0
	movq	%rsi, %rax
	andl	$1, %esi
.LVL39:
	shrq	%rax
	orq	%rsi, %rax
	cvtsi2sdq	%rax, %xmm2
	addsd	%xmm2, %xmm2
	jmp	.L26
	.cfi_endproc
.LFE46:
	.size	p4a_kernel_run, .-p4a_kernel_run
	.p2align 4,,15
.globl p4a_wrapper_run
	.type	p4a_wrapper_run, @function
p4a_wrapper_run:
.LFB45:
	.loc 1 55 0
	.cfi_startproc
.LVL40:
	movq	%rbx, -16(%rsp)
	movq	%rbp, -8(%rsp)
	subq	$88, %rsp
.LCFI16:
	.cfi_def_cfa_offset 96
	.loc 1 55 0
	movq	%rdx, %rbx
	.cfi_offset 6, -16
	.cfi_offset 3, -24
	movq	%rcx, %rbp
	.loc 1 61 0
	movsd	%xmm0, 48(%rsp)
.LVL41:
	movsd	%xmm1, 32(%rsp)
.LVL42:
	movsd	%xmm2, 16(%rsp)
.LVL43:
	movsd	%xmm3, (%rsp)
.LVL44:
	.byte	0x66
	leaq	P4A_vp_coordinate@TLSGD(%rip), %rdi
	.value	0x6666
	rex64
	call	__tls_get_addr@PLT
.LVL45:
	movsd	(%rsp), %xmm3
	movq	%rbp, %rcx
	movslq	(%rax),%rsi
	movslq	4(%rax),%rdi
	movq	%rbx, %rdx
	movsd	16(%rsp), %xmm2
	.loc 1 62 0
	movq	72(%rsp), %rbx
.LVL46:
	.loc 1 61 0
	movsd	32(%rsp), %xmm1
	.loc 1 62 0
	movq	80(%rsp), %rbp
.LVL47:
	.loc 1 61 0
	movsd	48(%rsp), %xmm0
	.loc 1 62 0
	addq	$88, %rsp
	.loc 1 61 0
	jmp	p4a_kernel_run@PLT
	.cfi_endproc
.LFE45:
	.size	p4a_wrapper_run, .-p4a_wrapper_run
	.p2align 4,,15
	.type	p4a_launcher_run.omp_fn.0, @function
p4a_launcher_run.omp_fn.0:
.LFB52:
	.loc 1 83 0
	.cfi_startproc
.LVL48:
	pushq	%r13
.LCFI17:
	.cfi_def_cfa_offset 16
	pushq	%r12
.LCFI18:
	.cfi_def_cfa_offset 24
	pushq	%rbp
.LCFI19:
	.cfi_def_cfa_offset 32
	pushq	%rbx
.LCFI20:
	.cfi_def_cfa_offset 40
	movq	%rdi, %rbx
	.cfi_offset 3, -40
	.cfi_offset 6, -32
	.cfi_offset 12, -24
	.cfi_offset 13, -16
	subq	$8, %rsp
.LCFI21:
	.cfi_def_cfa_offset 48
	.loc 1 83 0
	call	omp_get_num_threads@PLT
.LVL49:
	movl	%eax, %ebp
	call	omp_get_thread_num@PLT
	movl	$290, %ecx
	movl	%eax, %r12d
	movl	%ecx, %edx
	movl	%ecx, %eax
	sarl	$31, %edx
	idivl	%ebp
	xorl	%edx, %edx
	imull	%eax, %ebp
	cmpl	$290, %ebp
	setne	%dl
	leal	(%rdx,%rax), %eax
	imull	%eax, %r12d
.LVL50:
	leal	(%r12,%rax), %r13d
	cmpl	$290, %r13d
	cmovg	%ecx, %r13d
	cmpl	%r13d, %r12d
	jge	.L40
.LVL51:
	.p2align 4,,10
	.p2align 3
.L41:
	xorl	%ebp, %ebp
.LVL52:
	.p2align 4,,10
	.p2align 3
.L37:
.LBB47:
.LBB48:
	.byte	0x66
	leaq	P4A_vp_coordinate@TLSGD(%rip), %rdi
	.value	0x6666
	rex64
	call	__tls_get_addr@PLT
	movl	%ebp, (%rax)
	movl	%r12d, 4(%rax)
	addl	$1, %ebp
.LVL53:
	movl	$0, 8(%rax)
	movq	24(%rbx), %rcx
	movq	56(%rbx), %rsi
	movq	48(%rbx), %rdi
	movq	(%rbx), %rdx
	movsd	8(%rbx), %xmm0
	movsd	40(%rbx), %xmm3
	movsd	32(%rbx), %xmm2
	movsd	16(%rbx), %xmm1
	call	p4a_wrapper_run@PLT
	cmpl	$299, %ebp
	jne	.L37
.LBE48:
.LBE47:
	addl	$1, %r12d
	cmpl	%r12d, %r13d
	jg	.L41
.L40:
	addq	$8, %rsp
	popq	%rbx
.LVL54:
	popq	%rbp
.LVL55:
	popq	%r12
.LVL56:
	popq	%r13
	ret
	.cfi_endproc
.LFE52:
	.size	p4a_launcher_run.omp_fn.0, .-p4a_launcher_run.omp_fn.0
	.p2align 4,,15
.globl p4a_launcher_run
	.type	p4a_launcher_run, @function
p4a_launcher_run:
.LFB47:
	.loc 1 80 0
	.cfi_startproc
.LVL57:
	pushq	%rbx
.LCFI22:
	.cfi_def_cfa_offset 16
	.loc 1 83 0
	xorl	%edx, %edx
	.loc 1 80 0
	subq	$64, %rsp
.LCFI23:
	.cfi_def_cfa_offset 80
	.loc 1 83 0
	movq	%rdi, (%rsp)
	leaq	p4a_launcher_run.omp_fn.0(%rip), %rdi
.LVL58:
	movq	%rsi, 24(%rsp)
	movq	%rsp, %rsi
.LVL59:
	movsd	%xmm0, 8(%rsp)
	movq	$0, 48(%rsp)
	movsd	%xmm1, 16(%rsp)
	movq	$0, 56(%rsp)
	movsd	%xmm2, 32(%rsp)
	movsd	%xmm3, 40(%rsp)
	.cfi_offset 3, -16
	call	GOMP_parallel_start@PLT
.LVL60:
	movq	%rsp, %rdi
	call	p4a_launcher_run.omp_fn.0
	call	GOMP_parallel_end@PLT
	.loc 1 84 0
	addq	$64, %rsp
	popq	%rbx
	ret
	.cfi_endproc
.LFE47:
	.size	p4a_launcher_run, .-p4a_launcher_run
	.section	.rodata.str1.1
.LC12:
	.string	"begin computation ...\n"
.LC13:
	.string	"end computation ...\n"
	.text
	.p2align 4,,15
.globl run
	.type	run, @function
run:
.LFB49:
	.loc 1 127 0
	.cfi_startproc
.LVL61:
	pushq	%r12
.LCFI24:
	.cfi_def_cfa_offset 16
.LBB49:
.LBB51:
	.loc 2 98 0
	leaq	.LC12(%rip), %rdx
.LBE51:
.LBE49:
	.loc 1 127 0
	movq	%rsi, %r12
	.cfi_offset 12, -16
.LBB53:
.LBB50:
	.loc 2 98 0
	xorl	%eax, %eax
	movl	$1, %esi
.LVL62:
.LBE50:
.LBE53:
	.loc 1 127 0
	pushq	%rbp
.LCFI25:
	.cfi_def_cfa_offset 24
	pushq	%rbx
.LCFI26:
	.cfi_def_cfa_offset 32
	movq	%rdi, %rbx
	.cfi_offset 3, -32
	.cfi_offset 6, -24
	subq	$112, %rsp
.LCFI27:
	.cfi_def_cfa_offset 144
.LBB54:
.LBB52:
	.loc 2 98 0
	movq	stderr@GOTPCREL(%rip), %rbp
	movq	(%rbp), %rdi
.LVL63:
	movsd	%xmm1, 64(%rsp)
.LVL64:
	movsd	%xmm0, 80(%rsp)
.LVL65:
	movsd	%xmm4, 48(%rsp)
.LVL66:
	movsd	%xmm5, 32(%rsp)
.LVL67:
	call	__fprintf_chk@PLT
.LVL68:
.LBE52:
.LBE54:
.LBB55:
	.loc 1 134 0
	leaq	96(%rsp), %rdi
	movl	$2081040, %esi
	.loc 1 133 0
	movq	$0, 104(%rsp)
.LVL69:
	movq	$0, 96(%rsp)
.LVL70:
	.loc 1 134 0
	call	P4A_accel_malloc@PLT
	.loc 1 135 0
	leaq	104(%rsp), %rdi
	movl	$69072, %esi
	call	P4A_accel_malloc@PLT
	.loc 1 136 0
	movq	96(%rsp), %rax
	xorl	%r9d, %r9d
	movl	$299, %r8d
	movl	$290, %ecx
	movl	$299, %edx
	movl	$290, %esi
	movl	$24, %edi
	movq	%rbx, 8(%rsp)
	movq	$0, (%rsp)
	movq	%rax, 16(%rsp)
	call	P4A_copy_to_accel_2d@PLT
	.loc 1 137 0
	movq	104(%rsp), %r9
	movq	%r12, %r8
	xorl	%ecx, %ecx
	movl	$2878, %edx
	movl	$2878, %esi
	movl	$24, %edi
	call	P4A_copy_to_accel_1d@PLT
	.loc 1 140 0
	movsd	48(%rsp), %xmm4
	movq	104(%rsp), %rsi
	movsd	32(%rsp), %xmm5
	movq	96(%rsp), %rdi
	movsd	64(%rsp), %xmm1
	movsd	80(%rsp), %xmm2
	movapd	%xmm5, %xmm0
.LVL71:
	movapd	%xmm1, %xmm3
.LVL72:
	movapd	%xmm4, %xmm1
.LVL73:
	call	p4a_launcher_run@PLT
.LVL74:
	.loc 1 141 0
	movq	96(%rsp), %rax
	xorl	%r9d, %r9d
	movl	$299, %r8d
	movl	$290, %ecx
	movl	$299, %edx
	movl	$290, %esi
	movl	$24, %edi
	movq	%rbx, 8(%rsp)
	movq	$0, (%rsp)
	movq	%rax, 16(%rsp)
	call	P4A_copy_from_accel_2d@PLT
	.loc 1 142 0
	movq	96(%rsp), %rdi
	call	P4A_accel_free@PLT
	.loc 1 143 0
	movq	104(%rsp), %rdi
	call	P4A_accel_free@PLT
.LBE55:
.LBB56:
.LBB57:
	.loc 2 98 0
	movq	(%rbp), %rdi
	leaq	.LC13(%rip), %rdx
	movl	$1, %esi
	xorl	%eax, %eax
	call	__fprintf_chk@PLT
.LBE57:
.LBE56:
	.loc 1 146 0
	addq	$112, %rsp
	popq	%rbx
.LVL75:
	popq	%rbp
	popq	%r12
.LVL76:
	ret
	.cfi_endproc
.LFE49:
	.size	run, .-run
	.p2align 4,,15
.globl main
	.type	main, @function
main:
.LFB51:
	.loc 1 157 0
	.cfi_startproc
.LVL77:
	pushq	%rbx
.LCFI28:
	.cfi_def_cfa_offset 16
	.loc 1 159 0
	movl	$1, %eax
	.loc 1 157 0
	movq	%rsi, %rbx
	.cfi_offset 3, -16
	subq	$2081152, %rsp
.LCFI29:
	.cfi_def_cfa_offset 2081168
	.loc 1 159 0
	cmpl	$8, %edi
	je	.L53
.LVL78:
	.loc 1 174 0
	addq	$2081152, %rsp
	popq	%rbx
.LVL79:
	ret
.LVL80:
	.p2align 4,,10
	.p2align 3
.L53:
.LBB58:
	.loc 1 163 0
	movq	8(%rsi), %rdi
.LVL81:
	call	read_towns@PLT
	movq	%rax, 80(%rsp)
	movq	%rax, 2081136(%rsp)
.LBB59:
.LBB60:
	.file 3 "/usr/include/stdlib.h"
	.loc 3 281 0
	xorl	%esi, %esi
.LBE60:
.LBE59:
	.loc 1 163 0
	movq	%rdx, 88(%rsp)
	movq	%rdx, 2081144(%rsp)
.LBB62:
.LBB61:
	.loc 3 281 0
	movq	16(%rbx), %rdi
	call	strtod@PLT
	movsd	%xmm0, 72(%rsp)
.LBE61:
.LBE62:
.LBB63:
.LBB64:
	movq	24(%rbx), %rdi
	xorl	%esi, %esi
	call	strtod@PLT
.LBE64:
.LBE63:
.LBB65:
.LBB66:
	movq	32(%rbx), %rdi
	xorl	%esi, %esi
	movsd	%xmm0, (%rsp)
	call	strtod@PLT
.LBE66:
.LBE65:
.LBB67:
.LBB68:
	movq	40(%rbx), %rdi
	xorl	%esi, %esi
	movsd	%xmm0, 16(%rsp)
	call	strtod@PLT
.LBE68:
.LBE67:
.LBB69:
.LBB70:
	movq	48(%rbx), %rdi
	xorl	%esi, %esi
	movsd	%xmm0, 32(%rsp)
	call	strtod@PLT
.LBE70:
.LBE69:
.LBB71:
.LBB73:
	movq	56(%rbx), %rdi
	xorl	%esi, %esi
	movsd	%xmm0, 48(%rsp)
.LBE73:
.LBE71:
	.loc 1 170 0
	leaq	96(%rsp), %rbx
.LVL82:
.LBB75:
.LBB72:
	.loc 3 281 0
	call	strtod@PLT
.LBE72:
.LBE75:
	.loc 1 170 0
	movsd	48(%rsp), %xmm4
	movq	2081144(%rsp), %rsi
.LBB76:
.LBB74:
	.loc 3 281 0
	movapd	%xmm0, %xmm5
.LVL83:
.LBE74:
.LBE76:
	.loc 1 170 0
	movq	%rbx, %rdi
	movsd	.LC8(%rip), %xmm0
	movsd	32(%rsp), %xmm3
	movsd	16(%rsp), %xmm2
	movsd	(%rsp), %xmm1
	mulsd	%xmm0, %xmm4
	mulsd	%xmm0, %xmm3
	mulsd	%xmm0, %xmm2
	mulsd	%xmm0, %xmm1
	mulsd	72(%rsp), %xmm0
	movsd	.LC7(%rip), %xmm6
	divsd	%xmm6, %xmm4
	divsd	%xmm6, %xmm0
	divsd	%xmm6, %xmm3
	divsd	%xmm6, %xmm2
	divsd	%xmm6, %xmm1
	call	run@PLT
.LVL84:
	.loc 1 171 0
	movq	%rbx, %rdi
	call	display@PLT
	xorl	%eax, %eax
.LBE58:
	.loc 1 174 0
	addq	$2081152, %rsp
	popq	%rbx
	ret
	.cfi_endproc
.LFE51:
	.size	main, .-main
	.section	.rodata.cst8,"aM",@progbits,8
	.align 8
.LC5:
	.long	2723323193
	.long	1066524486
	.align 8
.LC7:
	.long	0
	.long	1080459264
	.align 8
.LC8:
	.long	1413754136
	.long	1074340347
	.align 8
.LC10:
	.long	0
	.long	1085857792
	.align 8
.LC11:
	.long	0
	.long	1072693248
	.text
.Letext0:
	.section	.note.GNU-stack,"",@progbits
